target datalayout = "e-m:e-p270:32:32-p271:32:32-p272:64:64-i64:64-i128:128-f80:128-n8:16:32:64-S128"
target triple = "x86_64-pc-linux-gnu"

%struct._cmsStage_struct = type { ptr, i32, i32, i32, i32, ptr, ptr, ptr, ptr, ptr }
%struct._cmsStageMatrixData = type { ptr, ptr }

; Function Attrs: nounwind uwtable
define hidden void @cmsStageFree(ptr noundef %0) #0 {
  %2 = alloca ptr, align 8
  store ptr %0, ptr %2, align 8
  %3 = load ptr, ptr %2, align 8
  %4 = getelementptr inbounds %struct._cmsStage_struct, ptr %3, i32 0, i32 7
  %5 = load ptr, ptr %4, align 8
  %6 = icmp ne ptr %5, null
  br i1 %6, label %7, label %12

7:                                                ; preds = %1
  %8 = load ptr, ptr %2, align 8
  %9 = getelementptr inbounds %struct._cmsStage_struct, ptr %8, i32 0, i32 7
  %10 = load ptr, ptr %9, align 8
  %11 = load ptr, ptr %2, align 8
  call void %10(ptr noundef %11)
  br label %12

12:                                               ; preds = %7, %1
  %13 = load ptr, ptr %2, align 8
  %14 = getelementptr inbounds %struct._cmsStage_struct, ptr %13, i32 0, i32 0
  %15 = load ptr, ptr %14, align 8
  %16 = load ptr, ptr %2, align 8
  call void @_cmsFree(ptr noundef %15, ptr noundef %16)
  ret void
}

; Function Attrs: nounwind uwtable
define hidden ptr @_cmsStageAllocPlaceholder(ptr noundef %0, i32 noundef %1, i32 noundef %2, i32 noundef %3, ptr noundef %4, ptr noundef %5, ptr noundef %6, ptr noundef %7) #0 {
  %9 = alloca ptr, align 8
  %10 = alloca ptr, align 8
  %11 = alloca i32, align 4
  %12 = alloca i32, align 4
  %13 = alloca i32, align 4
  %14 = alloca ptr, align 8
  %15 = alloca ptr, align 8
  %16 = alloca ptr, align 8
  %17 = alloca ptr, align 8
  %18 = alloca ptr, align 8
  store ptr %0, ptr %10, align 8
  store i32 %1, ptr %11, align 4
  store i32 %2, ptr %12, align 4
  store i32 %3, ptr %13, align 4
  store ptr %4, ptr %14, align 8
  store ptr %5, ptr %15, align 8
  store ptr %6, ptr %16, align 8
  store ptr %7, ptr %17, align 8
  %19 = load ptr, ptr %10, align 8
  %20 = call ptr @_cmsMallocZero(ptr noundef %19, i32 noundef 64)
  store ptr %20, ptr %18, align 8
  %21 = load ptr, ptr %18, align 8
  %22 = icmp eq ptr %21, null
  br i1 %22, label %23, label %24

23:                                               ; preds = %8
  store ptr null, ptr %9, align 8
  br label %53

24:                                               ; preds = %8
  %25 = load ptr, ptr %10, align 8
  %26 = load ptr, ptr %18, align 8
  %27 = getelementptr inbounds %struct._cmsStage_struct, ptr %26, i32 0, i32 0
  store ptr %25, ptr %27, align 8
  %28 = load i32, ptr %11, align 4
  %29 = load ptr, ptr %18, align 8
  %30 = getelementptr inbounds %struct._cmsStage_struct, ptr %29, i32 0, i32 1
  store i32 %28, ptr %30, align 8
  %31 = load i32, ptr %11, align 4
  %32 = load ptr, ptr %18, align 8
  %33 = getelementptr inbounds %struct._cmsStage_struct, ptr %32, i32 0, i32 2
  store i32 %31, ptr %33, align 4
  %34 = load i32, ptr %12, align 4
  %35 = load ptr, ptr %18, align 8
  %36 = getelementptr inbounds %struct._cmsStage_struct, ptr %35, i32 0, i32 3
  store i32 %34, ptr %36, align 8
  %37 = load i32, ptr %13, align 4
  %38 = load ptr, ptr %18, align 8
  %39 = getelementptr inbounds %struct._cmsStage_struct, ptr %38, i32 0, i32 4
  store i32 %37, ptr %39, align 4
  %40 = load ptr, ptr %14, align 8
  %41 = load ptr, ptr %18, align 8
  %42 = getelementptr inbounds %struct._cmsStage_struct, ptr %41, i32 0, i32 5
  store ptr %40, ptr %42, align 8
  %43 = load ptr, ptr %15, align 8
  %44 = load ptr, ptr %18, align 8
  %45 = getelementptr inbounds %struct._cmsStage_struct, ptr %44, i32 0, i32 6
  store ptr %43, ptr %45, align 8
  %46 = load ptr, ptr %16, align 8
  %47 = load ptr, ptr %18, align 8
  %48 = getelementptr inbounds %struct._cmsStage_struct, ptr %47, i32 0, i32 7
  store ptr %46, ptr %48, align 8
  %49 = load ptr, ptr %17, align 8
  %50 = load ptr, ptr %18, align 8
  %51 = getelementptr inbounds %struct._cmsStage_struct, ptr %50, i32 0, i32 8
  store ptr %49, ptr %51, align 8
  %52 = load ptr, ptr %18, align 8
  store ptr %52, ptr %9, align 8
  br label %53

53:                                               ; preds = %24, %23
  %54 = load ptr, ptr %9, align 8
  ret ptr %54
}

; Function Attrs: nounwind uwtable
define hidden ptr @cmsStageAllocMatrix(ptr noundef %0, i32 noundef %1, i32 noundef %2, ptr noundef %3, ptr noundef %4) #0 {
  %6 = alloca ptr, align 8
  %7 = alloca ptr, align 8
  %8 = alloca i32, align 4
  %9 = alloca i32, align 4
  %10 = alloca ptr, align 8
  %11 = alloca ptr, align 8
  %12 = alloca i32, align 4
  %13 = alloca i32, align 4
  %14 = alloca ptr, align 8
  %15 = alloca ptr, align 8
  store ptr %0, ptr %7, align 8
  store i32 %1, ptr %8, align 4
  store i32 %2, ptr %9, align 4
  store ptr %3, ptr %10, align 8
  store ptr %4, ptr %11, align 8
  %16 = load i32, ptr %8, align 4
  %17 = load i32, ptr %9, align 4
  %18 = mul i32 %16, %17
  store i32 %18, ptr %13, align 4
  %19 = load i32, ptr %13, align 4
  %20 = icmp eq i32 %19, 0
  br i1 %20, label %21, label %22

21:                                               ; preds = %5
  store ptr null, ptr %6, align 8
  br label %130

22:                                               ; preds = %5
  %23 = load i32, ptr %13, align 4
  %24 = load i32, ptr %9, align 4
  %25 = udiv i32 -1, %24
  %26 = icmp uge i32 %23, %25
  br i1 %26, label %27, label %28

27:                                               ; preds = %22
  store ptr null, ptr %6, align 8
  br label %130

28:                                               ; preds = %22
  %29 = load i32, ptr %13, align 4
  %30 = load i32, ptr %8, align 4
  %31 = udiv i32 -1, %30
  %32 = icmp uge i32 %29, %31
  br i1 %32, label %33, label %34

33:                                               ; preds = %28
  store ptr null, ptr %6, align 8
  br label %130

34:                                               ; preds = %28
  %35 = load i32, ptr %13, align 4
  %36 = load i32, ptr %8, align 4
  %37 = icmp ult i32 %35, %36
  br i1 %37, label %42, label %38

38:                                               ; preds = %34
  %39 = load i32, ptr %13, align 4
  %40 = load i32, ptr %9, align 4
  %41 = icmp ult i32 %39, %40
  br i1 %41, label %42, label %43

42:                                               ; preds = %38, %34
  store ptr null, ptr %6, align 8
  br label %130

43:                                               ; preds = %38
  %44 = load ptr, ptr %7, align 8
  %45 = load i32, ptr %9, align 4
  %46 = load i32, ptr %8, align 4
  %47 = call ptr @_cmsStageAllocPlaceholder(ptr noundef %44, i32 noundef 1835103334, i32 noundef %45, i32 noundef %46, ptr noundef @EvaluateMatrix, ptr noundef @MatrixElemDup, ptr noundef @MatrixElemTypeFree, ptr noundef null)
  store ptr %47, ptr %15, align 8
  %48 = load ptr, ptr %15, align 8
  %49 = icmp eq ptr %48, null
  br i1 %49, label %50, label %51

50:                                               ; preds = %43
  store ptr null, ptr %6, align 8
  br label %130

51:                                               ; preds = %43
  %52 = load ptr, ptr %7, align 8
  %53 = call ptr @_cmsMallocZero(ptr noundef %52, i32 noundef 16)
  store ptr %53, ptr %14, align 8
  %54 = load ptr, ptr %14, align 8
  %55 = icmp eq ptr %54, null
  br i1 %55, label %56, label %57

56:                                               ; preds = %51
  br label %128

57:                                               ; preds = %51
  %58 = load ptr, ptr %14, align 8
  %59 = load ptr, ptr %15, align 8
  %60 = getelementptr inbounds %struct._cmsStage_struct, ptr %59, i32 0, i32 8
  store ptr %58, ptr %60, align 8
  %61 = load ptr, ptr %7, align 8
  %62 = load i32, ptr %13, align 4
  %63 = call ptr @_cmsCalloc(ptr noundef %61, i32 noundef %62, i32 noundef 8)
  %64 = load ptr, ptr %14, align 8
  %65 = getelementptr inbounds %struct._cmsStageMatrixData, ptr %64, i32 0, i32 0
  store ptr %63, ptr %65, align 8
  %66 = load ptr, ptr %14, align 8
  %67 = getelementptr inbounds %struct._cmsStageMatrixData, ptr %66, i32 0, i32 0
  %68 = load ptr, ptr %67, align 8
  %69 = icmp eq ptr %68, null
  br i1 %69, label %70, label %71

70:                                               ; preds = %57
  br label %128

71:                                               ; preds = %57
  store i32 0, ptr %12, align 4
  br label %72

72:                                               ; preds = %88, %71
  %73 = load i32, ptr %12, align 4
  %74 = load i32, ptr %13, align 4
  %75 = icmp ult i32 %73, %74
  br i1 %75, label %76, label %91

76:                                               ; preds = %72
  %77 = load ptr, ptr %10, align 8
  %78 = load i32, ptr %12, align 4
  %79 = zext i32 %78 to i64
  %80 = getelementptr inbounds double, ptr %77, i64 %79
  %81 = load double, ptr %80, align 8
  %82 = load ptr, ptr %14, align 8
  %83 = getelementptr inbounds %struct._cmsStageMatrixData, ptr %82, i32 0, i32 0
  %84 = load ptr, ptr %83, align 8
  %85 = load i32, ptr %12, align 4
  %86 = zext i32 %85 to i64
  %87 = getelementptr inbounds double, ptr %84, i64 %86
  store double %81, ptr %87, align 8
  br label %88

88:                                               ; preds = %76
  %89 = load i32, ptr %12, align 4
  %90 = add i32 %89, 1
  store i32 %90, ptr %12, align 4
  br label %72, !llvm.loop !15

91:                                               ; preds = %72
  %92 = load ptr, ptr %11, align 8
  %93 = icmp ne ptr %92, null
  br i1 %93, label %94, label %126

94:                                               ; preds = %91
  %95 = load ptr, ptr %7, align 8
  %96 = load i32, ptr %8, align 4
  %97 = call ptr @_cmsCalloc(ptr noundef %95, i32 noundef %96, i32 noundef 8)
  %98 = load ptr, ptr %14, align 8
  %99 = getelementptr inbounds %struct._cmsStageMatrixData, ptr %98, i32 0, i32 1
  store ptr %97, ptr %99, align 8
  %100 = load ptr, ptr %14, align 8
  %101 = getelementptr inbounds %struct._cmsStageMatrixData, ptr %100, i32 0, i32 1
  %102 = load ptr, ptr %101, align 8
  %103 = icmp eq ptr %102, null
  br i1 %103, label %104, label %105

104:                                              ; preds = %94
  br label %128

105:                                              ; preds = %94
  store i32 0, ptr %12, align 4
  br label %106

106:                                              ; preds = %122, %105
  %107 = load i32, ptr %12, align 4
  %108 = load i32, ptr %8, align 4
  %109 = icmp ult i32 %107, %108
  br i1 %109, label %110, label %125

110:                                              ; preds = %106
  %111 = load ptr, ptr %11, align 8
  %112 = load i32, ptr %12, align 4
  %113 = zext i32 %112 to i64
  %114 = getelementptr inbounds double, ptr %111, i64 %113
  %115 = load double, ptr %114, align 8
  %116 = load ptr, ptr %14, align 8
  %117 = getelementptr inbounds %struct._cmsStageMatrixData, ptr %116, i32 0, i32 1
  %118 = load ptr, ptr %117, align 8
  %119 = load i32, ptr %12, align 4
  %120 = zext i32 %119 to i64
  %121 = getelementptr inbounds double, ptr %118, i64 %120
  store double %115, ptr %121, align 8
  br label %122

122:                                              ; preds = %110
  %123 = load i32, ptr %12, align 4
  %124 = add i32 %123, 1
  store i32 %124, ptr %12, align 4
  br label %106, !llvm.loop !16

125:                                              ; preds = %106
  br label %126

126:                                              ; preds = %125, %91
  %127 = load ptr, ptr %15, align 8
  store ptr %127, ptr %6, align 8
  br label %130

128:                                              ; preds = %104, %70, %56
  %129 = load ptr, ptr %15, align 8
  call void @cmsStageFree(ptr noundef %129)
  store ptr null, ptr %6, align 8
  br label %130

130:                                              ; preds = %128, %126, %50, %42, %33, %27, %21
  %131 = load ptr, ptr %6, align 8
  ret ptr %131
}