; Function Attrs: nounwind uwtable
define hidden ptr @cmsStageAllocMatrix(ptr noundef %0, i32 noundef %1, i32 noundef %2, ptr nocapture noundef readonly %3, ptr noundef readonly %4) local_unnamed_addr #0 {
  %6 = mul i32 %2, %1
  %7 = icmp eq i32 %6, 0
  br i1 %7, label %_cmsStageAllocPlaceholder.exit.thread, label %8

8:                                                ; preds = %5
  %9 = udiv i32 -1, %2
  %.not = icmp ult i32 %6, %9
  br i1 %.not, label %10, label %_cmsStageAllocPlaceholder.exit.thread

10:                                               ; preds = %8
  %11 = udiv i32 -1, %1
  %.not51 = icmp ult i32 %6, %11
  br i1 %.not51, label %12, label %_cmsStageAllocPlaceholder.exit.thread

12:                                               ; preds = %10
  %13 = icmp ult i32 %6, %1
  %14 = icmp ult i32 %6, %2
  %or.cond = or i1 %13, %14
  br i1 %or.cond, label %_cmsStageAllocPlaceholder.exit.thread, label %15

15:                                               ; preds = %12
  %16 = tail call ptr @_cmsMallocZero(ptr noundef %0, i32 noundef 64) #18
  %17 = icmp eq ptr %16, null
  br i1 %17, label %_cmsStageAllocPlaceholder.exit.thread, label %18

18:                                               ; preds = %15
  store ptr %0, ptr %16, align 8
  %19 = getelementptr inbounds i8, ptr %16, i64 8
  store i32 1835103334, ptr %19, align 8
  %20 = getelementptr inbounds i8, ptr %16, i64 12
  store i32 1835103334, ptr %20, align 4
  %21 = getelementptr inbounds i8, ptr %16, i64 16
  store i32 %2, ptr %21, align 8
  %22 = getelementptr inbounds i8, ptr %16, i64 20
  store i32 %1, ptr %22, align 4
  %23 = getelementptr inbounds i8, ptr %16, i64 24
  store ptr @EvaluateMatrix, ptr %23, align 8
  %24 = getelementptr inbounds i8, ptr %16, i64 32
  store ptr @MatrixElemDup, ptr %24, align 8
  %25 = getelementptr inbounds i8, ptr %16, i64 40
  store ptr @MatrixElemTypeFree, ptr %25, align 8
  %26 = getelementptr inbounds i8, ptr %16, i64 48
  store ptr null, ptr %26, align 8
  %27 = tail call ptr @_cmsMallocZero(ptr noundef %0, i32 noundef 16) #18
  %28 = icmp eq ptr %27, null
  br i1 %28, label %45, label %29

29:                                               ; preds = %18
  store ptr %27, ptr %26, align 8
  %30 = tail call ptr @_cmsCalloc(ptr noundef %0, i32 noundef %6, i32 noundef 8) #18
  store ptr %30, ptr %27, align 8
  %31 = icmp eq ptr %30, null
  br i1 %31, label %45, label %.preheader53.preheader

.preheader53.preheader:                           ; preds = %29
  %wide.trip.count = zext i32 %6 to i64
  br label %.preheader53

.preheader53:                                     ; preds = %.preheader53.preheader, %.preheader53
  %indvars.iv = phi i64 [ 0, %.preheader53.preheader ], [ %indvars.iv.next, %.preheader53 ]
  %32 = getelementptr inbounds double, ptr %3, i64 %indvars.iv
  %33 = load double, ptr %32, align 8
  %34 = load ptr, ptr %27, align 8
  %35 = getelementptr inbounds double, ptr %34, i64 %indvars.iv
  store double %33, ptr %35, align 8
  %indvars.iv.next = add nuw nsw i64 %indvars.iv, 1
  %exitcond.not = icmp eq i64 %indvars.iv.next, %wide.trip.count
  br i1 %exitcond.not, label %36, label %.preheader53, !llvm.loop !15

36:                                               ; preds = %.preheader53
  %.not52 = icmp eq ptr %4, null
  br i1 %.not52, label %_cmsStageAllocPlaceholder.exit.thread, label %37

37:                                               ; preds = %36
  %38 = tail call ptr @_cmsCalloc(ptr noundef %0, i32 noundef %1, i32 noundef 8) #18
  %39 = getelementptr inbounds i8, ptr %27, i64 8
  store ptr %38, ptr %39, align 8
  %40 = icmp eq ptr %38, null
  br i1 %40, label %45, label %.preheader.preheader

.preheader.preheader:                             ; preds = %37
  %umax = tail call i32 @llvm.umax.i32(i32 %1, i32 1)
  %wide.trip.count60 = zext i32 %umax to i64
  br label %.preheader

.preheader:                                       ; preds = %.preheader.preheader, %.preheader
  %indvars.iv57 = phi i64 [ 0, %.preheader.preheader ], [ %indvars.iv.next58, %.preheader ]
  %41 = getelementptr inbounds double, ptr %4, i64 %indvars.iv57
  %42 = load double, ptr %41, align 8
  %43 = load ptr, ptr %39, align 8
  %44 = getelementptr inbounds double, ptr %43, i64 %indvars.iv57
  store double %42, ptr %44, align 8
  %indvars.iv.next58 = add nuw nsw i64 %indvars.iv57, 1
  %exitcond61.not = icmp eq i64 %indvars.iv.next58, %wide.trip.count60
  br i1 %exitcond61.not, label %_cmsStageAllocPlaceholder.exit.thread, label %.preheader, !llvm.loop !16

45:                                               ; preds = %37, %29, %18
  %46 = load ptr, ptr %25, align 8
  %.not.i = icmp eq ptr %46, null
  br i1 %.not.i, label %cmsStageFree.exit, label %47

47:                                               ; preds = %45
  tail call void %46(ptr noundef nonnull %16) #18
  br label %cmsStageFree.exit

cmsStageFree.exit:                                ; preds = %45, %47
  %48 = load ptr, ptr %16, align 8
  tail call void @_cmsFree(ptr noundef %48, ptr noundef nonnull %16) #18
  br label %_cmsStageAllocPlaceholder.exit.thread

_cmsStageAllocPlaceholder.exit.thread:            ; preds = %.preheader, %15, %36, %12, %10, %8, %5, %cmsStageFree.exit
  %.0 = phi ptr [ null, %cmsStageFree.exit ], [ null, %5 ], [ null, %8 ], [ null, %10 ], [ null, %12 ], [ %16, %36 ], [ null, %15 ], [ %16, %.preheader ]
  ret ptr %.0
}